target datalayout = "e-m:e-p270:32:32-p271:32:32-p272:64:64-i64:64-i128:128-f80:128-n8:16:32:64-S128"
target triple = "x86_64-pc-linux-gnu"

%"class.std::__shared_count" = type { ptr }
%union.pthread_mutex_t = type { %struct.__pthread_mutex_s }
%struct.__pthread_mutex_s = type { i32, i32, i32, i32, i32, i16, i16, %struct.__pthread_internal_list }
%struct.__pthread_internal_list = type { ptr, ptr }
%"class.std::__cxx11::basic_string" = type { %"struct.std::__cxx11::basic_string<char>::_Alloc_hider", i64, %union.anon }
%"struct.std::__cxx11::basic_string<char>::_Alloc_hider" = type { ptr }
%union.anon = type { i64, [8 x i8] }
%"class.OpenColorIO_v2_5dev::Config" = type { ptr }
%"class.OpenColorIO_v2_5dev::Config::Impl" = type { i32, i32, %"class.std::map", %"class.std::shared_ptr.20", %"class.std::__cxx11::basic_string", i8, %"class.std::__cxx11::basic_string", %"class.std::shared_ptr.23", %"class.std::vector.26", %"class.std::vector.26", %"class.std::__cxx11::basic_string", %"class.std::__cxx11::basic_string", %"class.std::__cxx11::basic_string", %"class.std::map", %"class.std::vector.31", %"class.std::vector.36", %"class.std::vector.26", %"class.std::vector.26", %"class.std::vector.26", %"class.std::vector.26", %"class.std::vector.41", %"class.std::shared_ptr.46", %"struct.OpenColorIO_v2_5dev::Display", %"class.std::vector.49", %"class.std::__cxx11::basic_string", %"class.std::__cxx11::basic_string", %"class.std::__cxx11::basic_string", %"class.std::vector.26", %"class.std::vector.54", %"class.std::vector.26", %"class.std::vector.26", %"class.std::vector.59", i8, i32, %"class.std::__cxx11::basic_string", %"class.std::mutex", %"class.std::map", %"class.std::__cxx11::basic_string", %"class.std::shared_ptr.64", i32, %"class.OpenColorIO_v2_5dev::ProcessorCache" }
%"class.std::shared_ptr.20" = type { %"class.std::__shared_ptr.21" }
%"class.std::__shared_ptr.21" = type { ptr, %"class.std::__shared_count" }
%"class.std::shared_ptr.23" = type { %"class.std::__shared_ptr.24" }
%"class.std::__shared_ptr.24" = type { ptr, %"class.std::__shared_count" }
%"class.std::vector.31" = type { %"struct.std::_Vector_base.32" }
%"struct.std::_Vector_base.32" = type { %"struct.std::_Vector_base<std::shared_ptr<OpenColorIO_v2_5dev::Look>, std::allocator<std::shared_ptr<OpenColorIO_v2_5dev::Look>>>::_Vector_impl" }
%"struct.std::_Vector_base<std::shared_ptr<OpenColorIO_v2_5dev::Look>, std::allocator<std::shared_ptr<OpenColorIO_v2_5dev::Look>>>::_Vector_impl" = type { %"struct.std::_Vector_base<std::shared_ptr<OpenColorIO_v2_5dev::Look>, std::allocator<std::shared_ptr<OpenColorIO_v2_5dev::Look>>>::_Vector_impl_data" }
%"struct.std::_Vector_base<std::shared_ptr<OpenColorIO_v2_5dev::Look>, std::allocator<std::shared_ptr<OpenColorIO_v2_5dev::Look>>>::_Vector_impl_data" = type { ptr, ptr, ptr }
%"class.std::vector.36" = type { %"struct.std::_Vector_base.37" }
%"struct.std::_Vector_base.37" = type { %"struct.std::_Vector_base<std::pair<std::__cxx11::basic_string<char>, OpenColorIO_v2_5dev::Display>, std::allocator<std::pair<std::__cxx11::basic_string<char>, OpenColorIO_v2_5dev::Display>>>::_Vector_impl" }
%"struct.std::_Vector_base<std::pair<std::__cxx11::basic_string<char>, OpenColorIO_v2_5dev::Display>, std::allocator<std::pair<std::__cxx11::basic_string<char>, OpenColorIO_v2_5dev::Display>>>::_Vector_impl" = type { %"struct.std::_Vector_base<std::pair<std::__cxx11::basic_string<char>, OpenColorIO_v2_5dev::Display>, std::allocator<std::pair<std::__cxx11::basic_string<char>, OpenColorIO_v2_5dev::Display>>>::_Vector_impl_data" }
%"struct.std::_Vector_base<std::pair<std::__cxx11::basic_string<char>, OpenColorIO_v2_5dev::Display>, std::allocator<std::pair<std::__cxx11::basic_string<char>, OpenColorIO_v2_5dev::Display>>>::_Vector_impl_data" = type { ptr, ptr, ptr }
%"class.std::vector.41" = type { %"struct.std::_Vector_base.42" }
%"struct.std::_Vector_base.42" = type { %"struct.std::_Vector_base<OpenColorIO_v2_5dev::View, std::allocator<OpenColorIO_v2_5dev::View>>::_Vector_impl" }
%"struct.std::_Vector_base<OpenColorIO_v2_5dev::View, std::allocator<OpenColorIO_v2_5dev::View>>::_Vector_impl" = type { %"struct.std::_Vector_base<OpenColorIO_v2_5dev::View, std::allocator<OpenColorIO_v2_5dev::View>>::_Vector_impl_data" }
%"struct.std::_Vector_base<OpenColorIO_v2_5dev::View, std::allocator<OpenColorIO_v2_5dev::View>>::_Vector_impl_data" = type { ptr, ptr, ptr }
%"class.std::shared_ptr.46" = type { %"class.std::__shared_ptr.47" }
%"class.std::__shared_ptr.47" = type { ptr, %"class.std::__shared_count" }
%"struct.OpenColorIO_v2_5dev::Display" = type { i8, %"class.std::vector.41", %"class.std::vector.26" }
%"class.std::vector.49" = type { %"struct.std::_Vector_base.50" }
%"struct.std::_Vector_base.50" = type { %"struct.std::_Vector_base<std::shared_ptr<OpenColorIO_v2_5dev::ViewTransform>, std::allocator<std::shared_ptr<OpenColorIO_v2_5dev::ViewTransform>>>::_Vector_impl" }
%"struct.std::_Vector_base<std::shared_ptr<OpenColorIO_v2_5dev::ViewTransform>, std::allocator<std::shared_ptr<OpenColorIO_v2_5dev::ViewTransform>>>::_Vector_impl" = type { %"struct.std::_Vector_base<std::shared_ptr<OpenColorIO_v2_5dev::ViewTransform>, std::allocator<std::shared_ptr<OpenColorIO_v2_5dev::ViewTransform>>>::_Vector_impl_data" }
%"struct.std::_Vector_base<std::shared_ptr<OpenColorIO_v2_5dev::ViewTransform>, std::allocator<std::shared_ptr<OpenColorIO_v2_5dev::ViewTransform>>>::_Vector_impl_data" = type { ptr, ptr, ptr }
%"class.std::vector.54" = type { %"struct.std::_Vector_base.55" }
%"struct.std::_Vector_base.55" = type { %"struct.std::_Vector_base<std::shared_ptr<const OpenColorIO_v2_5dev::NamedTransform>, std::allocator<std::shared_ptr<const OpenColorIO_v2_5dev::NamedTransform>>>::_Vector_impl" }
%"struct.std::_Vector_base<std::shared_ptr<const OpenColorIO_v2_5dev::NamedTransform>, std::allocator<std::shared_ptr<const OpenColorIO_v2_5dev::NamedTransform>>>::_Vector_impl" = type { %"struct.std::_Vector_base<std::shared_ptr<const OpenColorIO_v2_5dev::NamedTransform>, std::allocator<std::shared_ptr<const OpenColorIO_v2_5dev::NamedTransform>>>::_Vector_impl_data" }
%"struct.std::_Vector_base<std::shared_ptr<const OpenColorIO_v2_5dev::NamedTransform>, std::allocator<std::shared_ptr<const OpenColorIO_v2_5dev::NamedTransform>>>::_Vector_impl_data" = type { ptr, ptr, ptr }
%"class.std::vector.26" = type { %"struct.std::_Vector_base.27" }
%"struct.std::_Vector_base.27" = type { %"struct.std::_Vector_base<std::__cxx11::basic_string<char>, std::allocator<std::__cxx11::basic_string<char>>>::_Vector_impl" }
%"struct.std::_Vector_base<std::__cxx11::basic_string<char>, std::allocator<std::__cxx11::basic_string<char>>>::_Vector_impl" = type { %"struct.std::_Vector_base<std::__cxx11::basic_string<char>, std::allocator<std::__cxx11::basic_string<char>>>::_Vector_impl_data" }
%"struct.std::_Vector_base<std::__cxx11::basic_string<char>, std::allocator<std::__cxx11::basic_string<char>>>::_Vector_impl_data" = type { ptr, ptr, ptr }
%"class.std::vector.59" = type { %"struct.std::_Vector_base.60" }
%"struct.std::_Vector_base.60" = type { %"struct.std::_Vector_base<double, std::allocator<double>>::_Vector_impl" }
%"struct.std::_Vector_base<double, std::allocator<double>>::_Vector_impl" = type { %"struct.std::_Vector_base<double, std::allocator<double>>::_Vector_impl_data" }
%"struct.std::_Vector_base<double, std::allocator<double>>::_Vector_impl_data" = type { ptr, ptr, ptr }
%"class.std::mutex" = type { %"class.std::__mutex_base" }
%"class.std::__mutex_base" = type { %union.pthread_mutex_t }
%"class.std::map" = type { %"class.std::_Rb_tree" }
%"class.std::_Rb_tree" = type { %"struct.std::_Rb_tree<std::__cxx11::basic_string<char>, std::pair<const std::__cxx11::basic_string<char>, std::__cxx11::basic_string<char>>, std::_Select1st<std::pair<const std::__cxx11::basic_string<char>, std::__cxx11::basic_string<char>>>, std::less<std::__cxx11::basic_string<char>>>::_Rb_tree_impl" }
%"struct.std::_Rb_tree<std::__cxx11::basic_string<char>, std::pair<const std::__cxx11::basic_string<char>, std::__cxx11::basic_string<char>>, std::_Select1st<std::pair<const std::__cxx11::basic_string<char>, std::__cxx11::basic_string<char>>>, std::less<std::__cxx11::basic_string<char>>>::_Rb_tree_impl" = type { [8 x i8], %"struct.std::_Rb_tree_header" }
%"struct.std::_Rb_tree_header" = type { %"struct.std::_Rb_tree_node_base", i64 }
%"struct.std::_Rb_tree_node_base" = type { i32, ptr, ptr, ptr }
%"class.std::shared_ptr.64" = type { %"class.std::__shared_ptr.65" }
%"class.std::__shared_ptr.65" = type { ptr, %"class.std::__shared_count" }
%"class.OpenColorIO_v2_5dev::ProcessorCache" = type { %"class.OpenColorIO_v2_5dev::GenericCache" }
%"class.OpenColorIO_v2_5dev::GenericCache" = type { ptr, i8, i8, %"class.std::mutex", %"class.std::map.67" }
%"class.std::map.67" = type { %"class.std::_Rb_tree.68" }
%"class.std::_Rb_tree.68" = type { %"struct.std::_Rb_tree<unsigned long, std::pair<const unsigned long, std::shared_ptr<OpenColorIO_v2_5dev::Processor>>, std::_Select1st<std::pair<const unsigned long, std::shared_ptr<OpenColorIO_v2_5dev::Processor>>>, std::less<unsigned long>>::_Rb_tree_impl" }
%"struct.std::_Rb_tree<unsigned long, std::pair<const unsigned long, std::shared_ptr<OpenColorIO_v2_5dev::Processor>>, std::_Select1st<std::pair<const unsigned long, std::shared_ptr<OpenColorIO_v2_5dev::Processor>>>, std::less<unsigned long>>::_Rb_tree_impl" = type { [8 x i8], %"struct.std::_Rb_tree_header" }
%"class.std::shared_ptr.142" = type { %"class.std::__shared_ptr.143" }
%"class.std::__shared_ptr.143" = type { ptr, %"class.std::__shared_count" }

@.str.25 = private unnamed_addr constant [1 x i8] zeroinitializer, align 1

; Function Attrs: mustprogress nounwind uwtable
define linkonce_odr hidden noundef ptr @_ZNKSt12__shared_ptrIN19OpenColorIO_v2_5dev13ViewTransformELN9__gnu_cxx12_Lock_policyE2EE3getEv(ptr noundef nonnull align 8 dereferenceable(16) %0) #4 comdat align 2 {
  %2 = alloca ptr, align 8
  store ptr %0, ptr %2, align 8, !tbaa !1148
  %3 = load ptr, ptr %2, align 8
  %4 = getelementptr inbounds nuw %"class.std::__shared_ptr.143", ptr %3, i32 0, i32 0
  %5 = load ptr, ptr %4, align 8, !tbaa !1150
  ret ptr %5
}

; Function Attrs: mustprogress nounwind uwtable
define linkonce_odr hidden noundef ptr @_ZNKSt19__shared_ptr_accessIN19OpenColorIO_v2_5dev13ViewTransformELN9__gnu_cxx12_Lock_policyE2ELb0ELb0EE6_M_getEv(ptr noundef nonnull align 1 dereferenceable(1) %0) #4 comdat align 2 {
  %2 = alloca ptr, align 8
  store ptr %0, ptr %2, align 8, !tbaa !440
  %3 = load ptr, ptr %2, align 8
  %4 = call noundef ptr @_ZNKSt12__shared_ptrIN19OpenColorIO_v2_5dev13ViewTransformELN9__gnu_cxx12_Lock_policyE2EE3getEv(ptr noundef nonnull align 8 dereferenceable(16) %3) #3
  ret ptr %4
}

; Function Attrs: noinline noreturn nounwind uwtable
define linkonce_odr hidden void @__clang_call_terminate(ptr noundef %0) #12 comdat {
  %2 = call ptr @__cxa_begin_catch(ptr %0) #3
  call void @_ZSt9terminatev() #26
  unreachable
}

; Function Attrs: mustprogress nounwind uwtable
define linkonce_odr hidden noundef ptr @_ZNKSt19__shared_ptr_accessIN19OpenColorIO_v2_5dev13ViewTransformELN9__gnu_cxx12_Lock_policyE2ELb0ELb0EEptEv(ptr noundef nonnull align 1 dereferenceable(1) %0) #4 comdat align 2 {
  %2 = alloca ptr, align 8
  store ptr %0, ptr %2, align 8, !tbaa !440
  %3 = load ptr, ptr %2, align 8
  %4 = call noundef ptr @_ZNKSt19__shared_ptr_accessIN19OpenColorIO_v2_5dev13ViewTransformELN9__gnu_cxx12_Lock_policyE2ELb0ELb0EE6_M_getEv(ptr noundef nonnull align 1 dereferenceable(1) %3) #3
  ret ptr %4
}

; Function Attrs: mustprogress nounwind uwtable
define linkonce_odr hidden noundef nonnull align 8 dereferenceable(16) ptr @_ZNKSt6vectorISt10shared_ptrIN19OpenColorIO_v2_5dev13ViewTransformEESaIS3_EEixEm(ptr noundef nonnull align 8 dereferenceable(24) %0, i64 noundef %1) #4 comdat align 2 {
  %3 = alloca ptr, align 8
  %4 = alloca i64, align 8
  store ptr %0, ptr %3, align 8, !tbaa !182
  store i64 %1, ptr %4, align 8, !tbaa !80
  %5 = load ptr, ptr %3, align 8
  %6 = getelementptr inbounds nuw %"struct.std::_Vector_base.50", ptr %5, i32 0, i32 0
  %7 = getelementptr inbounds nuw %"struct.std::_Vector_base<std::shared_ptr<OpenColorIO_v2_5dev::ViewTransform>, std::allocator<std::shared_ptr<OpenColorIO_v2_5dev::ViewTransform>>>::_Vector_impl_data", ptr %6, i32 0, i32 0
  %8 = load ptr, ptr %7, align 8, !tbaa !439
  %9 = load i64, ptr %4, align 8, !tbaa !80
  %10 = getelementptr inbounds nuw %"class.std::shared_ptr.142", ptr %8, i64 %9
  ret ptr %10
}

; Function Attrs: mustprogress nounwind uwtable
define linkonce_odr hidden noundef i64 @_ZNKSt6vectorISt10shared_ptrIN19OpenColorIO_v2_5dev13ViewTransformEESaIS3_EE4sizeEv(ptr noundef nonnull align 8 dereferenceable(24) %0) #4 comdat align 2 {
  %2 = alloca ptr, align 8
  store ptr %0, ptr %2, align 8, !tbaa !182
  %3 = load ptr, ptr %2, align 8
  %4 = getelementptr inbounds nuw %"struct.std::_Vector_base.50", ptr %3, i32 0, i32 0
  %5 = getelementptr inbounds nuw %"struct.std::_Vector_base<std::shared_ptr<OpenColorIO_v2_5dev::ViewTransform>, std::allocator<std::shared_ptr<OpenColorIO_v2_5dev::ViewTransform>>>::_Vector_impl_data", ptr %4, i32 0, i32 1
  %6 = load ptr, ptr %5, align 8, !tbaa !438
  %7 = getelementptr inbounds nuw %"struct.std::_Vector_base.50", ptr %3, i32 0, i32 0
  %8 = getelementptr inbounds nuw %"struct.std::_Vector_base<std::shared_ptr<OpenColorIO_v2_5dev::ViewTransform>, std::allocator<std::shared_ptr<OpenColorIO_v2_5dev::ViewTransform>>>::_Vector_impl_data", ptr %7, i32 0, i32 0
  %9 = load ptr, ptr %8, align 8, !tbaa !439
  %10 = ptrtoint ptr %6 to i64
  %11 = ptrtoint ptr %9 to i64
  %12 = sub i64 %10, %11
  %13 = sdiv exact i64 %12, 16
  ret i64 %13
}

; Function Attrs: mustprogress nounwind uwtable
define linkonce_odr hidden noundef ptr @_ZNK19OpenColorIO_v2_5dev6Config7getImplEv(ptr noundef nonnull align 8 dereferenceable(8) %0) #4 comdat align 2 {
  %2 = alloca ptr, align 8
  store ptr %0, ptr %2, align 8, !tbaa !25
  %3 = load ptr, ptr %2, align 8
  %4 = getelementptr inbounds nuw %"class.OpenColorIO_v2_5dev::Config", ptr %3, i32 0, i32 0
  %5 = load ptr, ptr %4, align 8, !tbaa !26
  ret ptr %5
}

; Function Attrs: mustprogress nounwind uwtable
define noundef ptr @_ZNK19OpenColorIO_v2_5dev6Config27getViewTransformNameByIndexEi(ptr noundef nonnull align 8 dereferenceable(8) %0, i32 noundef %1) #4 align 2 personality ptr @__gxx_personality_v0 {
  %3 = alloca ptr, align 8
  %4 = alloca ptr, align 8
  %5 = alloca i32, align 4
  store ptr %0, ptr %4, align 8, !tbaa !25
  store i32 %1, ptr %5, align 4, !tbaa !165
  %6 = load ptr, ptr %4, align 8
  %7 = load i32, ptr %5, align 4, !tbaa !165
  %8 = icmp slt i32 %7, 0
  br i1 %8, label %17, label %9

9:                                                ; preds = %2
  %10 = load i32, ptr %5, align 4, !tbaa !165
  %11 = invoke noundef ptr @_ZNK19OpenColorIO_v2_5dev6Config7getImplEv(ptr noundef nonnull align 8 dereferenceable(8) %6)
          to label %12 unwind label %29

12:                                               ; preds = %9
  %13 = getelementptr inbounds nuw %"class.OpenColorIO_v2_5dev::Config::Impl", ptr %11, i32 0, i32 23
  %14 = call noundef i64 @_ZNKSt6vectorISt10shared_ptrIN19OpenColorIO_v2_5dev13ViewTransformEESaIS3_EE4sizeEv(ptr noundef nonnull align 8 dereferenceable(24) %13) #3
  %15 = trunc i64 %14 to i32
  %16 = icmp sge i32 %10, %15
  br i1 %16, label %17, label %18

17:                                               ; preds = %12, %2
  store ptr @.str.25, ptr %3, align 8
  br label %27

18:                                               ; preds = %12
  %19 = invoke noundef ptr @_ZNK19OpenColorIO_v2_5dev6Config7getImplEv(ptr noundef nonnull align 8 dereferenceable(8) %6)
          to label %20 unwind label %29

20:                                               ; preds = %18
  %21 = getelementptr inbounds nuw %"class.OpenColorIO_v2_5dev::Config::Impl", ptr %19, i32 0, i32 23
  %22 = load i32, ptr %5, align 4, !tbaa !165
  %23 = sext i32 %22 to i64
  %24 = call noundef nonnull align 8 dereferenceable(16) ptr @_ZNKSt6vectorISt10shared_ptrIN19OpenColorIO_v2_5dev13ViewTransformEESaIS3_EEixEm(ptr noundef nonnull align 8 dereferenceable(24) %21, i64 noundef %23) #3
  %25 = call noundef ptr @_ZNKSt19__shared_ptr_accessIN19OpenColorIO_v2_5dev13ViewTransformELN9__gnu_cxx12_Lock_policyE2ELb0ELb0EEptEv(ptr noundef nonnull align 1 dereferenceable(1) %24) #3
  %26 = call noundef ptr @_ZNK19OpenColorIO_v2_5dev13ViewTransform7getNameEv(ptr noundef nonnull align 8 dereferenceable(8) %25) #3
  store ptr %26, ptr %3, align 8
  br label %27

27:                                               ; preds = %20, %17
  %28 = load ptr, ptr %3, align 8
  ret ptr %28

29:                                               ; preds = %18, %9
  %30 = landingpad { ptr, i32 }
          catch ptr null
  %31 = extractvalue { ptr, i32 } %30, 0
  call void @__clang_call_terminate(ptr %31) #26
  unreachable
}