; Function Attrs: mustprogress nounwind uwtable
define noundef ptr @_ZNK19OpenColorIO_v2_5dev6Config27getViewTransformNameByIndexEi(ptr noundef nonnull readonly align 8 captures(none) dereferenceable(8) %0, i32 noundef %1) local_unnamed_addr #6 align 2 personality ptr @__gxx_personality_v0 {
  %3 = icmp slt i32 %1, 0
  br i1 %3, label %20, label %4

4:                                                ; preds = %2
  %5 = load ptr, ptr %0, align 8, !tbaa !34
  %6 = getelementptr inbounds nuw i8, ptr %5, i64 592
  %7 = getelementptr inbounds nuw i8, ptr %5, i64 600
  %8 = load ptr, ptr %7, align 8, !tbaa !221
  %9 = load ptr, ptr %6, align 8, !tbaa !220
  %10 = ptrtoint ptr %8 to i64
  %11 = ptrtoint ptr %9 to i64
  %12 = sub i64 %10, %11
  %13 = lshr exact i64 %12, 4
  %14 = trunc i64 %13 to i32
  %.not = icmp slt i32 %1, %14
  br i1 %.not, label %15, label %20

15:                                               ; preds = %4
  %16 = zext nneg i32 %1 to i64
  %17 = getelementptr inbounds nuw %"class.std::shared_ptr.142", ptr %9, i64 %16
  %18 = load ptr, ptr %17, align 8, !tbaa !266
  %19 = tail call noundef ptr @_ZNK19OpenColorIO_v2_5dev13ViewTransform7getNameEv(ptr noundef nonnull align 8 dereferenceable(8) %18) #34
  br label %20

20:                                               ; preds = %2, %4, %15
  %.0 = phi ptr [ %19, %15 ], [ @.str.25, %4 ], [ @.str.25, %2 ]
  ret ptr %.0
}